target datalayout = "e-m:e-p270:32:32-p271:32:32-p272:64:64-i64:64-i128:128-f80:128-n8:16:32:64-S128"
target triple = "x86_64-pc-linux-gnu"

%"struct.std::_Rb_tree_header" = type { %"struct.std::_Rb_tree_node_base", i64 }
%"struct.std::_Rb_tree_node_base" = type { i32, ptr, ptr, ptr }
%"class.std::_Rb_tree.638" = type { %"struct.std::_Rb_tree<ue2::(anonymous namespace)::created_key, std::pair<const ue2::(anonymous namespace)::created_key, ue2::graph_detail::vertex_descriptor<ue2::ue2_graph<ue2::RoseGraph, ue2::RoseVertexProps, ue2::RoseEdgeProps>>>, std::_Select1st<std::pair<const ue2::(anonymous namespace)::created_key, ue2::graph_detail::vertex_descriptor<ue2::ue2_graph<ue2::RoseGraph, ue2::RoseVertexProps, ue2::RoseEdgeProps>>>>, std::less<ue2::(anonymous namespace)::created_key>>::_Rb_tree_impl" }
%"struct.std::_Rb_tree<ue2::(anonymous namespace)::created_key, std::pair<const ue2::(anonymous namespace)::created_key, ue2::graph_detail::vertex_descriptor<ue2::ue2_graph<ue2::RoseGraph, ue2::RoseVertexProps, ue2::RoseEdgeProps>>>, std::_Select1st<std::pair<const ue2::(anonymous namespace)::created_key, ue2::graph_detail::vertex_descriptor<ue2::ue2_graph<ue2::RoseGraph, ue2::RoseVertexProps, ue2::RoseEdgeProps>>>>, std::less<ue2::(anonymous namespace)::created_key>>::_Rb_tree_impl" = type { [8 x i8], %"struct.std::_Rb_tree_header" }
%"struct.std::_Rb_tree_node.649" = type { %"struct.std::_Rb_tree_node_base", %"struct.__gnu_cxx::__aligned_membuf.650" }
%"struct.__gnu_cxx::__aligned_membuf.650" = type { [32 x i8] }

; Function Attrs: mustprogress nounwind uwtable
define internal noundef ptr @_ZN9__gnu_cxx16__aligned_membufISt4pairIKN3ue212_GLOBAL__N_111created_keyENS2_12graph_detail17vertex_descriptorINS2_9ue2_graphINS2_9RoseGraphENS2_15RoseVertexPropsENS2_13RoseEdgePropsEEEEEEE7_M_addrEv(ptr noundef nonnull align 8 dereferenceable(32) %0) #1 align 2 {
  %2 = alloca ptr, align 8
  store ptr %0, ptr %2, align 8
  %3 = load ptr, ptr %2, align 8
  %4 = getelementptr inbounds nuw %"struct.__gnu_cxx::__aligned_membuf.650", ptr %3, i32 0, i32 0
  ret ptr %4
}

; Function Attrs: mustprogress nounwind uwtable
define internal void @_ZNSt15__new_allocatorISt13_Rb_tree_nodeISt4pairIKN3ue212_GLOBAL__N_111created_keyENS2_12graph_detail17vertex_descriptorINS2_9ue2_graphINS2_9RoseGraphENS2_15RoseVertexPropsENS2_13RoseEdgePropsEEEEEEEE10deallocateEPSF_m(ptr noundef nonnull align 1 dereferenceable(1) %0, ptr noundef %1, i64 noundef %2) #1 align 2 {
  %4 = alloca ptr, align 8
  %5 = alloca ptr, align 8
  %6 = alloca i64, align 8
  store ptr %0, ptr %4, align 8
  store ptr %1, ptr %5, align 8
  store i64 %2, ptr %6, align 8
  %7 = load ptr, ptr %5, align 8
  call void @_ZdlPv(ptr noundef %7) #28
  ret void
}

; Function Attrs: mustprogress nounwind uwtable
define internal void @_ZNSt15__new_allocatorISt13_Rb_tree_nodeISt4pairIKN3ue212_GLOBAL__N_111created_keyENS2_12graph_detail17vertex_descriptorINS2_9ue2_graphINS2_9RoseGraphENS2_15RoseVertexPropsENS2_13RoseEdgePropsEEEEEEEE7destroyISE_EEvPT_(ptr noundef nonnull align 1 dereferenceable(1) %0, ptr noundef %1) #1 align 2 {
  %3 = alloca ptr, align 8
  %4 = alloca ptr, align 8
  store ptr %0, ptr %3, align 8
  store ptr %1, ptr %4, align 8
  ret void
}

; Function Attrs: mustprogress nounwind uwtable
define internal noundef ptr @_ZN9__gnu_cxx16__aligned_membufISt4pairIKN3ue212_GLOBAL__N_111created_keyENS2_12graph_detail17vertex_descriptorINS2_9ue2_graphINS2_9RoseGraphENS2_15RoseVertexPropsENS2_13RoseEdgePropsEEEEEEE6_M_ptrEv(ptr noundef nonnull align 8 dereferenceable(32) %0) #1 align 2 {
  %2 = alloca ptr, align 8
  store ptr %0, ptr %2, align 8
  %3 = load ptr, ptr %2, align 8
  %4 = call noundef ptr @_ZN9__gnu_cxx16__aligned_membufISt4pairIKN3ue212_GLOBAL__N_111created_keyENS2_12graph_detail17vertex_descriptorINS2_9ue2_graphINS2_9RoseGraphENS2_15RoseVertexPropsENS2_13RoseEdgePropsEEEEEEE7_M_addrEv(ptr noundef nonnull align 8 dereferenceable(32) %3) #25
  ret ptr %4
}

; Function Attrs: noinline noreturn nounwind uwtable
define linkonce_odr hidden void @__clang_call_terminate(ptr noundef %0) #9 comdat {
  %2 = call ptr @__cxa_begin_catch(ptr %0) #25
  call void @_ZSt9terminatev() #26
  unreachable
}

; Function Attrs: mustprogress uwtable
define internal void @_ZNSt16allocator_traitsISaISt13_Rb_tree_nodeISt4pairIKN3ue212_GLOBAL__N_111created_keyENS2_12graph_detail17vertex_descriptorINS2_9ue2_graphINS2_9RoseGraphENS2_15RoseVertexPropsENS2_13RoseEdgePropsEEEEEEEEE10deallocateERSG_PSF_m(ptr noundef nonnull align 1 dereferenceable(1) %0, ptr noundef %1, i64 noundef %2) #3 align 2 {
  %4 = alloca ptr, align 8
  %5 = alloca ptr, align 8
  %6 = alloca i64, align 8
  store ptr %0, ptr %4, align 8
  store ptr %1, ptr %5, align 8
  store i64 %2, ptr %6, align 8
  %7 = load ptr, ptr %4, align 8
  %8 = load ptr, ptr %5, align 8
  %9 = load i64, ptr %6, align 8
  call void @_ZNSt15__new_allocatorISt13_Rb_tree_nodeISt4pairIKN3ue212_GLOBAL__N_111created_keyENS2_12graph_detail17vertex_descriptorINS2_9ue2_graphINS2_9RoseGraphENS2_15RoseVertexPropsENS2_13RoseEdgePropsEEEEEEEE10deallocateEPSF_m(ptr noundef nonnull align 1 dereferenceable(1) %7, ptr noundef %8, i64 noundef %9)
  ret void
}

; Function Attrs: mustprogress nounwind uwtable
define internal void @_ZNSt16allocator_traitsISaISt13_Rb_tree_nodeISt4pairIKN3ue212_GLOBAL__N_111created_keyENS2_12graph_detail17vertex_descriptorINS2_9ue2_graphINS2_9RoseGraphENS2_15RoseVertexPropsENS2_13RoseEdgePropsEEEEEEEEE7destroyISE_EEvRSG_PT_(ptr noundef nonnull align 1 dereferenceable(1) %0, ptr noundef %1) #1 align 2 {
  %3 = alloca ptr, align 8
  %4 = alloca ptr, align 8
  store ptr %0, ptr %3, align 8
  store ptr %1, ptr %4, align 8
  %5 = load ptr, ptr %3, align 8
  %6 = load ptr, ptr %4, align 8
  call void @_ZNSt15__new_allocatorISt13_Rb_tree_nodeISt4pairIKN3ue212_GLOBAL__N_111created_keyENS2_12graph_detail17vertex_descriptorINS2_9ue2_graphINS2_9RoseGraphENS2_15RoseVertexPropsENS2_13RoseEdgePropsEEEEEEEE7destroyISE_EEvPT_(ptr noundef nonnull align 1 dereferenceable(1) %5, ptr noundef %6) #25
  ret void
}

; Function Attrs: mustprogress nounwind uwtable
define internal noundef ptr @_ZNSt13_Rb_tree_nodeISt4pairIKN3ue212_GLOBAL__N_111created_keyENS1_12graph_detail17vertex_descriptorINS1_9ue2_graphINS1_9RoseGraphENS1_15RoseVertexPropsENS1_13RoseEdgePropsEEEEEEE9_M_valptrEv(ptr noundef nonnull align 8 dereferenceable(64) %0) #1 align 2 {
  %2 = alloca ptr, align 8
  store ptr %0, ptr %2, align 8
  %3 = load ptr, ptr %2, align 8
  %4 = getelementptr inbounds nuw %"struct.std::_Rb_tree_node.649", ptr %3, i32 0, i32 1
  %5 = call noundef ptr @_ZN9__gnu_cxx16__aligned_membufISt4pairIKN3ue212_GLOBAL__N_111created_keyENS2_12graph_detail17vertex_descriptorINS2_9ue2_graphINS2_9RoseGraphENS2_15RoseVertexPropsENS2_13RoseEdgePropsEEEEEEE6_M_ptrEv(ptr noundef nonnull align 8 dereferenceable(32) %4) #25
  ret ptr %5
}

; Function Attrs: mustprogress nounwind uwtable
define internal noundef nonnull align 1 dereferenceable(1) ptr @_ZNSt8_Rb_treeIN3ue212_GLOBAL__N_111created_keyESt4pairIKS2_NS0_12graph_detail17vertex_descriptorINS0_9ue2_graphINS0_9RoseGraphENS0_15RoseVertexPropsENS0_13RoseEdgePropsEEEEEESt10_Select1stISD_ESt4lessIS2_ESaISD_EE21_M_get_Node_allocatorEv(ptr noundef nonnull align 8 dereferenceable(48) %0) #1 align 2 {
  %2 = alloca ptr, align 8
  store ptr %0, ptr %2, align 8
  %3 = load ptr, ptr %2, align 8
  %4 = getelementptr inbounds nuw %"class.std::_Rb_tree.638", ptr %3, i32 0, i32 0
  ret ptr %4
}

; Function Attrs: mustprogress nounwind uwtable
define internal void @_ZNSt8_Rb_treeIN3ue212_GLOBAL__N_111created_keyESt4pairIKS2_NS0_12graph_detail17vertex_descriptorINS0_9ue2_graphINS0_9RoseGraphENS0_15RoseVertexPropsENS0_13RoseEdgePropsEEEEEESt10_Select1stISD_ESt4lessIS2_ESaISD_EE11_M_put_nodeEPSt13_Rb_tree_nodeISD_E(ptr noundef nonnull align 8 dereferenceable(48) %0, ptr noundef %1) #1 align 2 personality ptr @__gxx_personality_v0 {
  %3 = alloca ptr, align 8
  %4 = alloca ptr, align 8
  store ptr %0, ptr %3, align 8
  store ptr %1, ptr %4, align 8
  %5 = load ptr, ptr %3, align 8
  %6 = call noundef nonnull align 1 dereferenceable(1) ptr @_ZNSt8_Rb_treeIN3ue212_GLOBAL__N_111created_keyESt4pairIKS2_NS0_12graph_detail17vertex_descriptorINS0_9ue2_graphINS0_9RoseGraphENS0_15RoseVertexPropsENS0_13RoseEdgePropsEEEEEESt10_Select1stISD_ESt4lessIS2_ESaISD_EE21_M_get_Node_allocatorEv(ptr noundef nonnull align 8 dereferenceable(48) %5) #25
  %7 = load ptr, ptr %4, align 8
  invoke void @_ZNSt16allocator_traitsISaISt13_Rb_tree_nodeISt4pairIKN3ue212_GLOBAL__N_111created_keyENS2_12graph_detail17vertex_descriptorINS2_9ue2_graphINS2_9RoseGraphENS2_15RoseVertexPropsENS2_13RoseEdgePropsEEEEEEEEE10deallocateERSG_PSF_m(ptr noundef nonnull align 1 dereferenceable(1) %6, ptr noundef %7, i64 noundef 1)
          to label %8 unwind label %9

8:                                                ; preds = %2
  ret void

9:                                                ; preds = %2
  %10 = landingpad { ptr, i32 }
          catch ptr null
  %11 = extractvalue { ptr, i32 } %10, 0
  call void @__clang_call_terminate(ptr %11) #26
  unreachable
}

; Function Attrs: mustprogress nounwind uwtable
define internal void @_ZNSt8_Rb_treeIN3ue212_GLOBAL__N_111created_keyESt4pairIKS2_NS0_12graph_detail17vertex_descriptorINS0_9ue2_graphINS0_9RoseGraphENS0_15RoseVertexPropsENS0_13RoseEdgePropsEEEEEESt10_Select1stISD_ESt4lessIS2_ESaISD_EE15_M_destroy_nodeEPSt13_Rb_tree_nodeISD_E(ptr noundef nonnull align 8 dereferenceable(48) %0, ptr noundef %1) #1 align 2 {
  %3 = alloca ptr, align 8
  %4 = alloca ptr, align 8
  store ptr %0, ptr %3, align 8
  store ptr %1, ptr %4, align 8
  %5 = load ptr, ptr %3, align 8
  %6 = call noundef nonnull align 1 dereferenceable(1) ptr @_ZNSt8_Rb_treeIN3ue212_GLOBAL__N_111created_keyESt4pairIKS2_NS0_12graph_detail17vertex_descriptorINS0_9ue2_graphINS0_9RoseGraphENS0_15RoseVertexPropsENS0_13RoseEdgePropsEEEEEESt10_Select1stISD_ESt4lessIS2_ESaISD_EE21_M_get_Node_allocatorEv(ptr noundef nonnull align 8 dereferenceable(48) %5) #25
  %7 = load ptr, ptr %4, align 8
  %8 = call noundef ptr @_ZNSt13_Rb_tree_nodeISt4pairIKN3ue212_GLOBAL__N_111created_keyENS1_12graph_detail17vertex_descriptorINS1_9ue2_graphINS1_9RoseGraphENS1_15RoseVertexPropsENS1_13RoseEdgePropsEEEEEEE9_M_valptrEv(ptr noundef nonnull align 8 dereferenceable(64) %7)
  call void @_ZNSt16allocator_traitsISaISt13_Rb_tree_nodeISt4pairIKN3ue212_GLOBAL__N_111created_keyENS2_12graph_detail17vertex_descriptorINS2_9ue2_graphINS2_9RoseGraphENS2_15RoseVertexPropsENS2_13RoseEdgePropsEEEEEEEEE7destroyISE_EEvRSG_PT_(ptr noundef nonnull align 1 dereferenceable(1) %6, ptr noundef %8) #25
  ret void
}

; Function Attrs: mustprogress nounwind uwtable
define internal void @_ZNSt8_Rb_treeIN3ue212_GLOBAL__N_111created_keyESt4pairIKS2_NS0_12graph_detail17vertex_descriptorINS0_9ue2_graphINS0_9RoseGraphENS0_15RoseVertexPropsENS0_13RoseEdgePropsEEEEEESt10_Select1stISD_ESt4lessIS2_ESaISD_EE12_M_drop_nodeEPSt13_Rb_tree_nodeISD_E(ptr noundef nonnull align 8 dereferenceable(48) %0, ptr noundef %1) #1 align 2 {
  %3 = alloca ptr, align 8
  %4 = alloca ptr, align 8
  store ptr %0, ptr %3, align 8
  store ptr %1, ptr %4, align 8
  %5 = load ptr, ptr %3, align 8
  %6 = load ptr, ptr %4, align 8
  call void @_ZNSt8_Rb_treeIN3ue212_GLOBAL__N_111created_keyESt4pairIKS2_NS0_12graph_detail17vertex_descriptorINS0_9ue2_graphINS0_9RoseGraphENS0_15RoseVertexPropsENS0_13RoseEdgePropsEEEEEESt10_Select1stISD_ESt4lessIS2_ESaISD_EE15_M_destroy_nodeEPSt13_Rb_tree_nodeISD_E(ptr noundef nonnull align 8 dereferenceable(48) %5, ptr noundef %6) #25
  %7 = load ptr, ptr %4, align 8
  call void @_ZNSt8_Rb_treeIN3ue212_GLOBAL__N_111created_keyESt4pairIKS2_NS0_12graph_detail17vertex_descriptorINS0_9ue2_graphINS0_9RoseGraphENS0_15RoseVertexPropsENS0_13RoseEdgePropsEEEEEESt10_Select1stISD_ESt4lessIS2_ESaISD_EE11_M_put_nodeEPSt13_Rb_tree_nodeISD_E(ptr noundef nonnull align 8 dereferenceable(48) %5, ptr noundef %7) #25
  ret void
}

; Function Attrs: mustprogress nounwind uwtable
define internal noundef ptr @_ZNSt8_Rb_treeIN3ue212_GLOBAL__N_111created_keyESt4pairIKS2_NS0_12graph_detail17vertex_descriptorINS0_9ue2_graphINS0_9RoseGraphENS0_15RoseVertexPropsENS0_13RoseEdgePropsEEEEEESt10_Select1stISD_ESt4lessIS2_ESaISD_EE7_S_leftEPSt18_Rb_tree_node_base(ptr noundef %0) #1 align 2 {
  %2 = alloca ptr, align 8
  store ptr %0, ptr %2, align 8
  %3 = load ptr, ptr %2, align 8
  %4 = getelementptr inbounds nuw %"struct.std::_Rb_tree_node_base", ptr %3, i32 0, i32 2
  %5 = load ptr, ptr %4, align 8
  ret ptr %5
}

; Function Attrs: mustprogress nounwind uwtable
define internal noundef ptr @_ZNSt8_Rb_treeIN3ue212_GLOBAL__N_111created_keyESt4pairIKS2_NS0_12graph_detail17vertex_descriptorINS0_9ue2_graphINS0_9RoseGraphENS0_15RoseVertexPropsENS0_13RoseEdgePropsEEEEEESt10_Select1stISD_ESt4lessIS2_ESaISD_EE8_S_rightEPSt18_Rb_tree_node_base(ptr noundef %0) #1 align 2 {
  %2 = alloca ptr, align 8
  store ptr %0, ptr %2, align 8
  %3 = load ptr, ptr %2, align 8
  %4 = getelementptr inbounds nuw %"struct.std::_Rb_tree_node_base", ptr %3, i32 0, i32 3
  %5 = load ptr, ptr %4, align 8
  ret ptr %5
}

; Function Attrs: mustprogress uwtable
define internal void @_ZNSt8_Rb_treeIN3ue212_GLOBAL__N_111created_keyESt4pairIKS2_NS0_12graph_detail17vertex_descriptorINS0_9ue2_graphINS0_9RoseGraphENS0_15RoseVertexPropsENS0_13RoseEdgePropsEEEEEESt10_Select1stISD_ESt4lessIS2_ESaISD_EE8_M_eraseEPSt13_Rb_tree_nodeISD_E(ptr noundef nonnull align 8 dereferenceable(48) %0, ptr noundef %1) #3 align 2 {
  %3 = alloca ptr, align 8
  %4 = alloca ptr, align 8
  %5 = alloca ptr, align 8
  store ptr %0, ptr %3, align 8
  store ptr %1, ptr %4, align 8
  %6 = load ptr, ptr %3, align 8
  br label %7

7:                                                ; preds = %10, %2
  %8 = load ptr, ptr %4, align 8
  %9 = icmp ne ptr %8, null
  br i1 %9, label %10, label %17

10:                                               ; preds = %7
  %11 = load ptr, ptr %4, align 8
  %12 = call noundef ptr @_ZNSt8_Rb_treeIN3ue212_GLOBAL__N_111created_keyESt4pairIKS2_NS0_12graph_detail17vertex_descriptorINS0_9ue2_graphINS0_9RoseGraphENS0_15RoseVertexPropsENS0_13RoseEdgePropsEEEEEESt10_Select1stISD_ESt4lessIS2_ESaISD_EE8_S_rightEPSt18_Rb_tree_node_base(ptr noundef %11) #25
  call void @_ZNSt8_Rb_treeIN3ue212_GLOBAL__N_111created_keyESt4pairIKS2_NS0_12graph_detail17vertex_descriptorINS0_9ue2_graphINS0_9RoseGraphENS0_15RoseVertexPropsENS0_13RoseEdgePropsEEEEEESt10_Select1stISD_ESt4lessIS2_ESaISD_EE8_M_eraseEPSt13_Rb_tree_nodeISD_E(ptr noundef nonnull align 8 dereferenceable(48) %6, ptr noundef %12)
  call void @llvm.lifetime.start.p0(i64 8, ptr %5) #25
  %13 = load ptr, ptr %4, align 8
  %14 = call noundef ptr @_ZNSt8_Rb_treeIN3ue212_GLOBAL__N_111created_keyESt4pairIKS2_NS0_12graph_detail17vertex_descriptorINS0_9ue2_graphINS0_9RoseGraphENS0_15RoseVertexPropsENS0_13RoseEdgePropsEEEEEESt10_Select1stISD_ESt4lessIS2_ESaISD_EE7_S_leftEPSt18_Rb_tree_node_base(ptr noundef %13) #25
  store ptr %14, ptr %5, align 8
  %15 = load ptr, ptr %4, align 8
  call void @_ZNSt8_Rb_treeIN3ue212_GLOBAL__N_111created_keyESt4pairIKS2_NS0_12graph_detail17vertex_descriptorINS0_9ue2_graphINS0_9RoseGraphENS0_15RoseVertexPropsENS0_13RoseEdgePropsEEEEEESt10_Select1stISD_ESt4lessIS2_ESaISD_EE12_M_drop_nodeEPSt13_Rb_tree_nodeISD_E(ptr noundef nonnull align 8 dereferenceable(48) %6, ptr noundef %15) #25
  %16 = load ptr, ptr %5, align 8
  store ptr %16, ptr %4, align 8
  call void @llvm.lifetime.end.p0(i64 8, ptr %5) #25
  br label %7, !llvm.loop !60

17:                                               ; preds = %7
  ret void
}