; Function Attrs: mustprogress nounwind uwtable
define internal fastcc void @_ZNSt8_Rb_treeIN3ue212_GLOBAL__N_111created_keyESt4pairIKS2_NS0_12graph_detail17vertex_descriptorINS0_9ue2_graphINS0_9RoseGraphENS0_15RoseVertexPropsENS0_13RoseEdgePropsEEEEEESt10_Select1stISD_ESt4lessIS2_ESaISD_EE8_M_eraseEPSt13_Rb_tree_nodeISD_E(ptr noundef %0) unnamed_addr #5 align 2 personality ptr @__gxx_personality_v0 {
  %.not1 = icmp eq ptr %0, null
  br i1 %.not1, label %._crit_edge, label %.lr.ph

.lr.ph:                                           ; preds = %1, %.lr.ph
  %.02 = phi ptr [ %.0.val, %.lr.ph ], [ %0, %1 ]
  %2 = getelementptr i8, ptr %.02, i64 24
  %.0.val6 = load ptr, ptr %2, align 8
  tail call fastcc void @_ZNSt8_Rb_treeIN3ue212_GLOBAL__N_111created_keyESt4pairIKS2_NS0_12graph_detail17vertex_descriptorINS0_9ue2_graphINS0_9RoseGraphENS0_15RoseVertexPropsENS0_13RoseEdgePropsEEEEEESt10_Select1stISD_ESt4lessIS2_ESaISD_EE8_M_eraseEPSt13_Rb_tree_nodeISD_E(ptr noundef %.0.val6)
  %3 = getelementptr i8, ptr %.02, i64 16
  %.0.val = load ptr, ptr %3, align 8
  tail call void @_ZdlPv(ptr noundef nonnull %.02) #27
  %.not = icmp eq ptr %.0.val, null
  br i1 %.not, label %._crit_edge, label %.lr.ph, !llvm.loop !608

._crit_edge:                                      ; preds = %.lr.ph, %1
  ret void
}